target datalayout = "e-m:e-p270:32:32-p271:32:32-p272:64:64-i64:64-i128:128-f80:128-n8:16:32:64-S128"
target triple = "x86_64-pc-linux-gnu"

%struct.X509_sig_st = type { ptr, ptr }
%struct.X509_algor_st = type { ptr, ptr }

; Function Attrs: nounwind uwtable
define hidden ptr @PKCS8_decrypt(ptr noundef %0, ptr noundef %1, i32 noundef %2) #0 {
  %4 = alloca ptr, align 8
  %5 = alloca ptr, align 8
  %6 = alloca ptr, align 8
  %7 = alloca i32, align 4
  %8 = alloca ptr, align 8
  %9 = alloca i64, align 8
  %10 = alloca i32, align 4
  %11 = alloca ptr, align 8
  store ptr %0, ptr %5, align 8, !tbaa !6
  store ptr %1, ptr %6, align 8, !tbaa !11
  store i32 %2, ptr %7, align 4, !tbaa !13
  call void @llvm.lifetime.start.p0(i64 8, ptr %8) #8
  store ptr null, ptr %8, align 8, !tbaa !11
  call void @llvm.lifetime.start.p0(i64 8, ptr %9) #8
  store i64 0, ptr %9, align 8, !tbaa !15
  %12 = load ptr, ptr %5, align 8, !tbaa !6
  %13 = getelementptr inbounds nuw %struct.X509_sig_st, ptr %12, i32 0, i32 0
  %14 = load ptr, ptr %13, align 8, !tbaa !17
  %15 = getelementptr inbounds nuw %struct.X509_algor_st, ptr %14, i32 0, i32 0
  %16 = load ptr, ptr %15, align 8, !tbaa !21
  %17 = call i32 @OBJ_obj2nid(ptr noundef %16)
  %18 = load ptr, ptr %6, align 8, !tbaa !11
  %19 = load i32, ptr %7, align 4, !tbaa !13
  %20 = call i32 @pass_to_pass_raw(i32 noundef %17, ptr noundef %18, i32 noundef %19, ptr noundef %8, ptr noundef %9)
  %21 = icmp ne i32 %20, 0
  br i1 %21, label %23, label %22

22:                                               ; preds = %3
  store ptr null, ptr %4, align 8
  store i32 1, ptr %10, align 4
  br label %36

23:                                               ; preds = %3
  call void @llvm.lifetime.start.p0(i64 8, ptr %11) #8
  %24 = load ptr, ptr %5, align 8, !tbaa !6
  %25 = load ptr, ptr %8, align 8, !tbaa !11
  %26 = load i64, ptr %9, align 8, !tbaa !15
  %27 = call ptr @PKCS8_decrypt_pbe(ptr noundef %24, ptr noundef %25, i64 noundef %26)
  store ptr %27, ptr %11, align 8, !tbaa !25
  %28 = load ptr, ptr %8, align 8, !tbaa !11
  %29 = icmp ne ptr %28, null
  br i1 %29, label %30, label %34

30:                                               ; preds = %23
  %31 = load ptr, ptr %8, align 8, !tbaa !11
  %32 = load i64, ptr %9, align 8, !tbaa !15
  call void @OPENSSL_cleanse(ptr noundef %31, i64 noundef %32)
  %33 = load ptr, ptr %8, align 8, !tbaa !11
  call void @free(ptr noundef %33) #8
  br label %34

34:                                               ; preds = %30, %23
  %35 = load ptr, ptr %11, align 8, !tbaa !25
  store ptr %35, ptr %4, align 8
  store i32 1, ptr %10, align 4
  call void @llvm.lifetime.end.p0(i64 8, ptr %11) #8
  br label %36

36:                                               ; preds = %34, %22
  call void @llvm.lifetime.end.p0(i64 8, ptr %9) #8
  call void @llvm.lifetime.end.p0(i64 8, ptr %8) #8
  %37 = load ptr, ptr %4, align 8
  ret ptr %37
}