; Function Attrs: nounwind uwtable
define hidden ptr @PKCS8_decrypt(ptr noundef readonly captures(none) %0, ptr noundef %1, i32 noundef %2) local_unnamed_addr #0 {
  %4 = alloca ptr, align 8
  %5 = alloca i64, align 8
  call void @llvm.lifetime.start.p0(i64 8, ptr nonnull %4) #12
  store ptr null, ptr %4, align 8, !tbaa !6
  call void @llvm.lifetime.start.p0(i64 8, ptr nonnull %5) #12
  store i64 0, ptr %5, align 8, !tbaa !11
  %6 = load ptr, ptr %0, align 8, !tbaa !13
  %7 = load ptr, ptr %6, align 8, !tbaa !17
  %8 = tail call i32 @OBJ_obj2nid(ptr noundef %7) #12
  %9 = call fastcc i32 @pass_to_pass_raw(i32 noundef %8, ptr noundef %1, i32 noundef %2, ptr noundef %4, ptr noundef %5)
  %.not = icmp eq i32 %9, 0
  br i1 %.not, label %15, label %10

10:                                               ; preds = %3
  %11 = load ptr, ptr %4, align 8, !tbaa !6
  %12 = load i64, ptr %5, align 8, !tbaa !11
  %13 = tail call ptr @PKCS8_decrypt_pbe(ptr noundef nonnull %0, ptr noundef %11, i64 noundef %12)
  %.not6 = icmp eq ptr %11, null
  br i1 %.not6, label %15, label %14

14:                                               ; preds = %10
  tail call void @OPENSSL_cleanse(ptr noundef nonnull %11, i64 noundef %12) #12
  tail call void @free(ptr noundef nonnull %11) #12
  br label %15

15:                                               ; preds = %10, %14, %3
  %.0 = phi ptr [ null, %3 ], [ %13, %14 ], [ %13, %10 ]
  call void @llvm.lifetime.end.p0(i64 8, ptr nonnull %5) #12
  call void @llvm.lifetime.end.p0(i64 8, ptr nonnull %4) #12
  ret ptr %.0
}